; Function Attrs: nofree norecurse nosync nounwind memory(none) uwtable
define dso_local range(i64 0, 4294967296) i64 @cm_zlib_crc32_combine_op(i64 noundef %0, i64 noundef %1, i64 noundef %2) local_unnamed_addr #2 {
  %4 = trunc i64 %2 to i32
  %5 = trunc i64 %0 to i32
  br label %6

6:                                                ; preds = %13, %3
  %.012.i = phi i32 [ %5, %3 ], [ %18, %13 ]
  %.011.i = phi i32 [ -2147483648, %3 ], [ %14, %13 ]
  %.0.i = phi i32 [ 0, %3 ], [ %.1.i, %13 ]
  %7 = and i32 %.011.i, %4
  %.not.i = icmp eq i32 %7, 0
  br i1 %.not.i, label %13, label %8

8:                                                ; preds = %6
  %9 = xor i32 %.0.i, %.012.i
  %10 = add i32 %.011.i, -1
  %11 = and i32 %10, %4
  %12 = icmp eq i32 %11, 0
  br i1 %12, label %multmodp.exit, label %13

13:                                               ; preds = %8, %6
  %.1.i = phi i32 [ %9, %8 ], [ %.0.i, %6 ]
  %14 = lshr i32 %.011.i, 1
  %15 = and i32 %.012.i, 1
  %.not13.i = icmp eq i32 %15, 0
  %16 = lshr i32 %.012.i, 1
  %17 = xor i32 %16, -306674912
  %18 = select i1 %.not13.i, i32 %16, i32 %17
  br label %6

multmodp.exit:                                    ; preds = %8
  %19 = zext i32 %9 to i64
  %20 = and i64 %1, 4294967295
  %21 = xor i64 %20, %19
  ret i64 %21
}